target datalayout = "e-m:e-p270:32:32-p271:32:32-p272:64:64-i64:64-i128:128-f80:128-n8:16:32:64-S128"
target triple = "x86_64-pc-linux-gnu"

%struct.shape_desc = type { ptr, ptr, ptr, i8 }

@stderr = external global ptr, align 8
@UserShape = internal global ptr null, align 8
@N_UserShape = internal global i64 0, align 8
@.str.2 = private unnamed_addr constant [10 x i8] c"shapefile\00", align 1
@.str.3 = private unnamed_addr constant [5 x i8] c"epsf\00", align 1
@.str.4 = private unnamed_addr constant [7 x i8] c"custom\00", align 1
@.str.5 = private unnamed_addr constant [58 x i8] c"integer overflow when trying to allocate %zu * %zu bytes\0A\00", align 1
@.str.6 = private unnamed_addr constant [49 x i8] c"out of memory when trying to allocate %zu bytes\0A\00", align 1
@Lib = external global ptr, align 8
@.str.164 = private unnamed_addr constant [31 x i8] c"using %s for unknown shape %s\0A\00", align 1

; Function Attrs: inlinehint nounwind uwtable
define internal ptr @gv_calloc(i64 noundef %0, i64 noundef %1) #5 {
  %3 = alloca i64, align 8
  %4 = alloca i64, align 8
  %5 = alloca ptr, align 8
  store i64 %0, ptr %3, align 8, !tbaa !10
  store i64 %1, ptr %4, align 8, !tbaa !10
  %6 = load i64, ptr %3, align 8, !tbaa !10
  %7 = icmp ugt i64 %6, 0
  br i1 %7, label %8, label %18

8:                                                ; preds = %2
  %9 = load i64, ptr %3, align 8, !tbaa !10
  %10 = udiv i64 -1, %9
  %11 = load i64, ptr %4, align 8, !tbaa !10
  %12 = icmp ult i64 %10, %11
  br i1 %12, label %13, label %18

13:                                               ; preds = %8
  %14 = load ptr, ptr @stderr, align 8, !tbaa !14
  %15 = load i64, ptr %3, align 8, !tbaa !10
  %16 = load i64, ptr %4, align 8, !tbaa !10
  %17 = call i32 (ptr, ptr, ...) @fprintf(ptr noundef %14, ptr noundef @.str.5, i64 noundef %15, i64 noundef %16) #13
  call void @graphviz_exit(i32 noundef 1) #15
  unreachable

18:                                               ; preds = %8, %2
  call void @llvm.lifetime.start.p0(i64 8, ptr %5) #13
  %19 = load i64, ptr %3, align 8, !tbaa !10
  %20 = load i64, ptr %4, align 8, !tbaa !10
  %21 = call noalias ptr @calloc(i64 noundef %19, i64 noundef %20) #16
  store ptr %21, ptr %5, align 8, !tbaa !34
  %22 = load i64, ptr %3, align 8, !tbaa !10
  %23 = icmp ugt i64 %22, 0
  br i1 %23, label %24, label %36

24:                                               ; preds = %18
  %25 = load i64, ptr %4, align 8, !tbaa !10
  %26 = icmp ugt i64 %25, 0
  br i1 %26, label %27, label %36

27:                                               ; preds = %24
  %28 = load ptr, ptr %5, align 8, !tbaa !34
  %29 = icmp eq ptr %28, null
  br i1 %29, label %30, label %36

30:                                               ; preds = %27
  %31 = load ptr, ptr @stderr, align 8, !tbaa !14
  %32 = load i64, ptr %3, align 8, !tbaa !10
  %33 = load i64, ptr %4, align 8, !tbaa !10
  %34 = mul i64 %32, %33
  %35 = call i32 (ptr, ptr, ...) @fprintf(ptr noundef %31, ptr noundef @.str.6, i64 noundef %34) #13
  call void @graphviz_exit(i32 noundef 1) #15
  unreachable

36:                                               ; preds = %27, %24, %18
  %37 = load ptr, ptr %5, align 8, !tbaa !34
  call void @llvm.lifetime.end.p0(i64 8, ptr %5) #13
  ret ptr %37
}

; Function Attrs: inlinehint nounwind uwtable
define internal ptr @gv_realloc(ptr noundef %0, i64 noundef %1, i64 noundef %2) #5 {
  %4 = alloca ptr, align 8
  %5 = alloca ptr, align 8
  %6 = alloca i64, align 8
  %7 = alloca i64, align 8
  %8 = alloca ptr, align 8
  store ptr %0, ptr %5, align 8, !tbaa !34
  store i64 %1, ptr %6, align 8, !tbaa !10
  store i64 %2, ptr %7, align 8, !tbaa !10
  %9 = load i64, ptr %7, align 8, !tbaa !10
  %10 = icmp eq i64 %9, 0
  br i1 %10, label %11, label %13

11:                                               ; preds = %3
  %12 = load ptr, ptr %5, align 8, !tbaa !34
  call void @free(ptr noundef %12) #13
  store ptr null, ptr %4, align 8
  br label %36

13:                                               ; preds = %3
  call void @llvm.lifetime.start.p0(i64 8, ptr %8) #13
  %14 = load ptr, ptr %5, align 8, !tbaa !34
  %15 = load i64, ptr %7, align 8, !tbaa !10
  %16 = call ptr @realloc(ptr noundef %14, i64 noundef %15) #18
  store ptr %16, ptr %8, align 8, !tbaa !34
  %17 = load ptr, ptr %8, align 8, !tbaa !34
  %18 = icmp eq ptr %17, null
  br i1 %18, label %19, label %23

19:                                               ; preds = %13
  %20 = load ptr, ptr @stderr, align 8, !tbaa !14
  %21 = load i64, ptr %7, align 8, !tbaa !10
  %22 = call i32 (ptr, ptr, ...) @fprintf(ptr noundef %20, ptr noundef @.str.6, i64 noundef %21) #13
  call void @graphviz_exit(i32 noundef 1) #15
  unreachable

23:                                               ; preds = %13
  %24 = load i64, ptr %7, align 8, !tbaa !10
  %25 = load i64, ptr %6, align 8, !tbaa !10
  %26 = icmp ugt i64 %24, %25
  br i1 %26, label %27, label %34

27:                                               ; preds = %23
  %28 = load ptr, ptr %8, align 8, !tbaa !34
  %29 = load i64, ptr %6, align 8, !tbaa !10
  %30 = getelementptr inbounds nuw i8, ptr %28, i64 %29
  %31 = load i64, ptr %7, align 8, !tbaa !10
  %32 = load i64, ptr %6, align 8, !tbaa !10
  %33 = sub i64 %31, %32
  call void @llvm.memset.p0.i64(ptr align 1 %30, i8 0, i64 %33, i1 false)
  br label %34

34:                                               ; preds = %27, %23
  %35 = load ptr, ptr %8, align 8, !tbaa !34
  store ptr %35, ptr %4, align 8
  call void @llvm.lifetime.end.p0(i64 8, ptr %8) #13
  br label %36

36:                                               ; preds = %34, %11
  %37 = load ptr, ptr %4, align 8
  ret ptr %37
}

; Function Attrs: inlinehint nounwind uwtable
define internal ptr @gv_alloc(i64 noundef %0) #5 {
  %2 = alloca i64, align 8
  store i64 %0, ptr %2, align 8, !tbaa !10
  %3 = load i64, ptr %2, align 8, !tbaa !10
  %4 = call ptr @gv_calloc(i64 noundef 1, i64 noundef %3)
  ret ptr %4
}

; Function Attrs: inlinehint nounwind uwtable
define internal ptr @gv_recalloc(ptr noundef %0, i64 noundef %1, i64 noundef %2, i64 noundef %3) #5 {
  %5 = alloca ptr, align 8
  %6 = alloca i64, align 8
  %7 = alloca i64, align 8
  %8 = alloca i64, align 8
  store ptr %0, ptr %5, align 8, !tbaa !34
  store i64 %1, ptr %6, align 8, !tbaa !10
  store i64 %2, ptr %7, align 8, !tbaa !10
  store i64 %3, ptr %8, align 8, !tbaa !10
  %9 = load i64, ptr %7, align 8, !tbaa !10
  %10 = load i64, ptr %8, align 8, !tbaa !10
  %11 = udiv i64 -1, %10
  %12 = icmp ugt i64 %9, %11
  br i1 %12, label %13, label %18

13:                                               ; preds = %4
  %14 = load ptr, ptr @stderr, align 8, !tbaa !14
  %15 = load i64, ptr %7, align 8, !tbaa !10
  %16 = load i64, ptr %8, align 8, !tbaa !10
  %17 = call i32 (ptr, ptr, ...) @fprintf(ptr noundef %14, ptr noundef @.str.5, i64 noundef %15, i64 noundef %16) #13
  call void @graphviz_exit(i32 noundef 1) #15
  unreachable

18:                                               ; preds = %4
  %19 = load ptr, ptr %5, align 8, !tbaa !34
  %20 = load i64, ptr %6, align 8, !tbaa !10
  %21 = load i64, ptr %8, align 8, !tbaa !10
  %22 = mul i64 %20, %21
  %23 = load i64, ptr %7, align 8, !tbaa !10
  %24 = load i64, ptr %8, align 8, !tbaa !10
  %25 = mul i64 %23, %24
  %26 = call ptr @gv_realloc(ptr noundef %19, i64 noundef %22, i64 noundef %25)
  ret ptr %26
}

; Function Attrs: nounwind uwtable
define ptr @find_user_shape(ptr noundef %0) #0 {
  %2 = alloca ptr, align 8
  %3 = alloca ptr, align 8
  %4 = alloca i64, align 8
  %5 = alloca i32, align 4
  store ptr %0, ptr %3, align 8, !tbaa !75
  %6 = load ptr, ptr @UserShape, align 8, !tbaa !127
  %7 = icmp ne ptr %6, null
  br i1 %7, label %8, label %35

8:                                                ; preds = %1
  call void @llvm.lifetime.start.p0(i64 8, ptr %4) #13
  store i64 0, ptr %4, align 8, !tbaa !10
  br label %9

9:                                                ; preds = %29, %8
  %10 = load i64, ptr %4, align 8, !tbaa !10
  %11 = load i64, ptr @N_UserShape, align 8, !tbaa !10
  %12 = icmp ult i64 %10, %11
  br i1 %12, label %14, label %13

13:                                               ; preds = %9
  store i32 2, ptr %5, align 4
  br label %32

14:                                               ; preds = %9
  %15 = load ptr, ptr @UserShape, align 8, !tbaa !127
  %16 = load i64, ptr %4, align 8, !tbaa !10
  %17 = getelementptr inbounds nuw ptr, ptr %15, i64 %16
  %18 = load ptr, ptr %17, align 8, !tbaa !53
  %19 = getelementptr inbounds nuw %struct.shape_desc, ptr %18, i32 0, i32 0
  %20 = load ptr, ptr %19, align 8, !tbaa !95
  %21 = load ptr, ptr %3, align 8, !tbaa !75
  %22 = call zeroext i1 @streq(ptr noundef %20, ptr noundef %21)
  br i1 %22, label %23, label %28

23:                                               ; preds = %14
  %24 = load ptr, ptr @UserShape, align 8, !tbaa !127
  %25 = load i64, ptr %4, align 8, !tbaa !10
  %26 = getelementptr inbounds nuw ptr, ptr %24, i64 %25
  %27 = load ptr, ptr %26, align 8, !tbaa !53
  store ptr %27, ptr %2, align 8
  store i32 1, ptr %5, align 4
  br label %32

28:                                               ; preds = %14
  br label %29

29:                                               ; preds = %28
  %30 = load i64, ptr %4, align 8, !tbaa !10
  %31 = add i64 %30, 1
  store i64 %31, ptr %4, align 8, !tbaa !10
  br label %9, !llvm.loop !129

32:                                               ; preds = %23, %13
  call void @llvm.lifetime.end.p0(i64 8, ptr %4) #13
  %33 = load i32, ptr %5, align 4
  switch i32 %33, label %38 [
    i32 2, label %34
    i32 1, label %36
  ]

34:                                               ; preds = %32
  br label %35

35:                                               ; preds = %34, %1
  store ptr null, ptr %2, align 8
  br label %36

36:                                               ; preds = %35, %32
  %37 = load ptr, ptr %2, align 8
  ret ptr %37

38:                                               ; preds = %32
  unreachable
}

; Function Attrs: nounwind uwtable
define internal ptr @user_shape(ptr noundef %0) #0 {
  %2 = alloca ptr, align 8
  %3 = alloca ptr, align 8
  %4 = alloca ptr, align 8
  %5 = alloca i32, align 4
  %6 = alloca i64, align 8
  store ptr %0, ptr %3, align 8, !tbaa !75
  call void @llvm.lifetime.start.p0(i64 8, ptr %4) #13
  %7 = load ptr, ptr %3, align 8, !tbaa !75
  %8 = call ptr @find_user_shape(ptr noundef %7)
  store ptr %8, ptr %4, align 8, !tbaa !53
  %9 = icmp ne ptr %8, null
  br i1 %9, label %10, label %12

10:                                               ; preds = %1
  %11 = load ptr, ptr %4, align 8, !tbaa !53
  store ptr %11, ptr %2, align 8
  store i32 1, ptr %5, align 4
  br label %46

12:                                               ; preds = %1
  call void @llvm.lifetime.start.p0(i64 8, ptr %6) #13
  %13 = load i64, ptr @N_UserShape, align 8, !tbaa !10
  %14 = add i64 %13, 1
  store i64 %14, ptr @N_UserShape, align 8, !tbaa !10
  store i64 %13, ptr %6, align 8, !tbaa !10
  %15 = load ptr, ptr @UserShape, align 8, !tbaa !127
  %16 = load i64, ptr @N_UserShape, align 8, !tbaa !10
  %17 = sub i64 %16, 1
  %18 = load i64, ptr @N_UserShape, align 8, !tbaa !10
  %19 = call ptr @gv_recalloc(ptr noundef %15, i64 noundef %17, i64 noundef %18, i64 noundef 8)
  store ptr %19, ptr @UserShape, align 8, !tbaa !127
  %20 = call ptr @gv_alloc(i64 noundef 32)
  %21 = load ptr, ptr @UserShape, align 8, !tbaa !127
  %22 = load i64, ptr %6, align 8, !tbaa !10
  %23 = getelementptr inbounds nuw ptr, ptr %21, i64 %22
  store ptr %20, ptr %23, align 8, !tbaa !53
  store ptr %20, ptr %4, align 8, !tbaa !53
  %24 = load ptr, ptr %4, align 8, !tbaa !53
  call void @llvm.memcpy.p0.p0.i64(ptr align 8 %24, ptr align 16 @Shapes, i64 32, i1 false), !tbaa.struct !131
  %25 = load ptr, ptr %3, align 8, !tbaa !75
  %26 = call noalias ptr @strdup(ptr noundef %25) #13
  %27 = load ptr, ptr %4, align 8, !tbaa !53
  %28 = getelementptr inbounds nuw %struct.shape_desc, ptr %27, i32 0, i32 0
  store ptr %26, ptr %28, align 8, !tbaa !95
  %29 = load ptr, ptr @Lib, align 8, !tbaa !133
  %30 = icmp eq ptr %29, null
  br i1 %30, label %31, label %41

31:                                               ; preds = %12
  %32 = load ptr, ptr %3, align 8, !tbaa !75
  %33 = call zeroext i1 @streq(ptr noundef %32, ptr noundef @.str.4)
  br i1 %33, label %41, label %34

34:                                               ; preds = %31
  %35 = load ptr, ptr @Shapes, align 16, !tbaa !95
  %36 = load ptr, ptr %4, align 8, !tbaa !53
  %37 = getelementptr inbounds nuw %struct.shape_desc, ptr %36, i32 0, i32 0
  %38 = load ptr, ptr %37, align 8, !tbaa !95
  call void (ptr, ...) @agwarningf(ptr noundef @.str.164, ptr noundef %35, ptr noundef %38)
  %39 = load ptr, ptr %4, align 8, !tbaa !53
  %40 = getelementptr inbounds nuw %struct.shape_desc, ptr %39, i32 0, i32 3
  store i8 0, ptr %40, align 8, !tbaa !94
  br label %44

41:                                               ; preds = %31, %12
  %42 = load ptr, ptr %4, align 8, !tbaa !53
  %43 = getelementptr inbounds nuw %struct.shape_desc, ptr %42, i32 0, i32 3
  store i8 1, ptr %43, align 8, !tbaa !94
  br label %44

44:                                               ; preds = %41, %34
  %45 = load ptr, ptr %4, align 8, !tbaa !53
  store ptr %45, ptr %2, align 8
  store i32 1, ptr %5, align 4
  call void @llvm.lifetime.end.p0(i64 8, ptr %6) #13
  br label %46

46:                                               ; preds = %44, %10
  call void @llvm.lifetime.end.p0(i64 8, ptr %4) #13
  %47 = load ptr, ptr %2, align 8
  ret ptr %47
}

; Function Attrs: inlinehint nounwind uwtable
define internal zeroext i1 @streq(ptr noundef %0, ptr noundef %1) #5 {
  %3 = alloca ptr, align 8
  %4 = alloca ptr, align 8
  store ptr %0, ptr %3, align 8, !tbaa !75
  store ptr %1, ptr %4, align 8, !tbaa !75
  %5 = load ptr, ptr %3, align 8, !tbaa !75
  %6 = load ptr, ptr %4, align 8, !tbaa !75
  %7 = call i32 @strcmp(ptr noundef %5, ptr noundef %6) #17
  %8 = icmp eq i32 %7, 0
  ret i1 %8
}

; Function Attrs: nounwind uwtable
define ptr @bind_shape(ptr noundef %0, ptr noundef %1) #0 {
  %3 = alloca ptr, align 8
  %4 = alloca ptr, align 8
  %5 = alloca ptr, align 8
  %6 = alloca ptr, align 8
  %7 = alloca ptr, align 8
  store ptr %0, ptr %3, align 8, !tbaa !75
  store ptr %1, ptr %4, align 8, !tbaa !35
  call void @llvm.lifetime.start.p0(i64 8, ptr %5) #13
  call void @llvm.lifetime.start.p0(i64 8, ptr %6) #13
  store ptr null, ptr %6, align 8, !tbaa !53
  call void @llvm.lifetime.start.p0(i64 8, ptr %7) #13
  %8 = load ptr, ptr %4, align 8, !tbaa !35
  %9 = call ptr @agget(ptr noundef %8, ptr noundef @.str.2)
  %10 = call ptr @safefile(ptr noundef %9)
  store ptr %10, ptr %7, align 8, !tbaa !75
  %11 = load ptr, ptr %7, align 8, !tbaa !75
  %12 = icmp ne ptr %11, null
  br i1 %12, label %13, label %17

13:                                               ; preds = %2
  %14 = load ptr, ptr %3, align 8, !tbaa !75
  %15 = call zeroext i1 @streq(ptr noundef %14, ptr noundef @.str.3)
  br i1 %15, label %17, label %16

16:                                               ; preds = %13
  store ptr @.str.4, ptr %3, align 8, !tbaa !75
  br label %17

17:                                               ; preds = %16, %13, %2
  %18 = load ptr, ptr %3, align 8, !tbaa !75
  %19 = call zeroext i1 @streq(ptr noundef %18, ptr noundef @.str.4)
  br i1 %19, label %39, label %20

20:                                               ; preds = %17
  store ptr @Shapes, ptr %5, align 8, !tbaa !53
  br label %21

21:                                               ; preds = %35, %20
  %22 = load ptr, ptr %5, align 8, !tbaa !53
  %23 = getelementptr inbounds nuw %struct.shape_desc, ptr %22, i32 0, i32 0
  %24 = load ptr, ptr %23, align 8, !tbaa !95
  %25 = icmp ne ptr %24, null
  br i1 %25, label %26, label %38

26:                                               ; preds = %21
  %27 = load ptr, ptr %5, align 8, !tbaa !53
  %28 = getelementptr inbounds nuw %struct.shape_desc, ptr %27, i32 0, i32 0
  %29 = load ptr, ptr %28, align 8, !tbaa !95
  %30 = load ptr, ptr %3, align 8, !tbaa !75
  %31 = call zeroext i1 @streq(ptr noundef %29, ptr noundef %30)
  br i1 %31, label %32, label %34

32:                                               ; preds = %26
  %33 = load ptr, ptr %5, align 8, !tbaa !53
  store ptr %33, ptr %6, align 8, !tbaa !53
  br label %38

34:                                               ; preds = %26
  br label %35

35:                                               ; preds = %34
  %36 = load ptr, ptr %5, align 8, !tbaa !53
  %37 = getelementptr inbounds nuw %struct.shape_desc, ptr %36, i32 1
  store ptr %37, ptr %5, align 8, !tbaa !53
  br label %21, !llvm.loop !130

38:                                               ; preds = %32, %21
  br label %39

39:                                               ; preds = %38, %17
  %40 = load ptr, ptr %6, align 8, !tbaa !53
  %41 = icmp eq ptr %40, null
  br i1 %41, label %42, label %45

42:                                               ; preds = %39
  %43 = load ptr, ptr %3, align 8, !tbaa !75
  %44 = call ptr @user_shape(ptr noundef %43)
  store ptr %44, ptr %6, align 8, !tbaa !53
  br label %45

45:                                               ; preds = %42, %39
  %46 = load ptr, ptr %6, align 8, !tbaa !53
  call void @llvm.lifetime.end.p0(i64 8, ptr %7) #13
  call void @llvm.lifetime.end.p0(i64 8, ptr %6) #13
  call void @llvm.lifetime.end.p0(i64 8, ptr %5) #13
  ret ptr %46
}