; Function Attrs: nounwind uwtable
define noundef ptr @bind_shape(ptr noundef readonly captures(none) %0, ptr noundef %1) local_unnamed_addr #0 {
  %3 = tail call ptr @agget(ptr noundef %1, ptr noundef nonnull @.str.2) #26
  %4 = tail call ptr @safefile(ptr noundef %3) #26
  %.not = icmp eq ptr %4, null
  br i1 %.not, label %8, label %5

5:                                                ; preds = %2
  %6 = tail call i32 @strcmp(ptr noundef nonnull readonly dereferenceable(1) %0, ptr noundef nonnull dereferenceable(5) @.str.3) #31
  %7 = icmp eq i32 %6, 0
  %spec.select = select i1 %7, ptr %0, ptr @.str.4
  br label %8

8:                                                ; preds = %5, %2
  %.0 = phi ptr [ %0, %2 ], [ %spec.select, %5 ]
  %9 = tail call i32 @strcmp(ptr noundef nonnull readonly dereferenceable(1) %.0, ptr noundef nonnull dereferenceable(7) @.str.4) #31
  %10 = icmp eq i32 %9, 0
  %11 = load ptr, ptr @Shapes, align 16
  %.not1522 = icmp eq ptr %11, null
  %or.cond = select i1 %10, i1 true, i1 %.not1522
  br i1 %or.cond, label %.loopexit, label %.lr.ph

.lr.ph:                                           ; preds = %8, %15
  %12 = phi ptr [ %17, %15 ], [ %11, %8 ]
  %.01323 = phi ptr [ %16, %15 ], [ @Shapes, %8 ]
  %13 = tail call i32 @strcmp(ptr noundef nonnull readonly dereferenceable(1) %12, ptr noundef nonnull readonly dereferenceable(1) %.0) #31
  %14 = icmp eq i32 %13, 0
  br i1 %14, label %user_shape.exit, label %15

15:                                               ; preds = %.lr.ph
  %16 = getelementptr inbounds nuw i8, ptr %.01323, i64 32
  %17 = load ptr, ptr %16, align 8, !tbaa !79
  %.not15 = icmp eq ptr %17, null
  br i1 %.not15, label %.loopexit, label %.lr.ph, !llvm.loop !114

.loopexit:                                        ; preds = %15, %8
  %18 = load ptr, ptr @UserShape, align 8, !tbaa !109
  %.not.i.i = icmp eq ptr %18, null
  %.pre.i = load i64, ptr @N_UserShape, align 8, !tbaa !111
  br i1 %.not.i.i, label %.loopexit.i, label %.preheader.i.i

.preheader.i.i:                                   ; preds = %.loopexit
  %.not15.i.i = icmp eq i64 %.pre.i, 0
  br i1 %.not15.i.i, label %.thread17, label %.lr.ph.i.i

19:                                               ; preds = %.lr.ph.i.i
  %20 = add nuw i64 %.0612.i.i, 1
  %exitcond.not.i.i = icmp eq i64 %20, %.pre.i
  br i1 %exitcond.not.i.i, label %.loopexit.i, label %.lr.ph.i.i, !llvm.loop !112

.lr.ph.i.i:                                       ; preds = %.preheader.i.i, %19
  %.0612.i.i = phi i64 [ %20, %19 ], [ 0, %.preheader.i.i ]
  %21 = getelementptr inbounds nuw ptr, ptr %18, i64 %.0612.i.i
  %22 = load ptr, ptr %21, align 8, !tbaa !113
  %23 = load ptr, ptr %22, align 8, !tbaa !79
  %24 = tail call i32 @strcmp(ptr noundef nonnull readonly dereferenceable(1) %23, ptr noundef nonnull readonly dereferenceable(1) %.0) #31
  %25 = icmp eq i32 %24, 0
  br i1 %25, label %user_shape.exit, label %19

.loopexit.i:                                      ; preds = %19, %.loopexit
  %26 = add i64 %.pre.i, 1
  store i64 %26, ptr @N_UserShape, align 8, !tbaa !111
  %27 = icmp ugt i64 %26, 2305843009213693951
  br i1 %27, label %28, label %31

28:                                               ; preds = %.loopexit.i
  %29 = load ptr, ptr @stderr, align 8, !tbaa !10
  %30 = tail call i32 (ptr, ptr, ...) @fprintf(ptr noundef %29, ptr noundef nonnull @.str.5, i64 noundef %26, i64 noundef 8) #28
  tail call fastcc void @graphviz_exit() #29
  unreachable

31:                                               ; preds = %.loopexit.i
  %32 = shl nuw i64 %.pre.i, 3
  %33 = shl nuw i64 %26, 3
  %34 = icmp eq i64 %26, 0
  br i1 %34, label %35, label %36

35:                                               ; preds = %31
  tail call void @free(ptr noundef %18) #26
  br label %gv_recalloc.exit.i

36:                                               ; preds = %31
  %37 = tail call ptr @realloc(ptr noundef %18, i64 noundef range(i64 0, -7) %33) #32
  %38 = icmp eq ptr %37, null
  br i1 %38, label %41, label %45

.thread17:                                        ; preds = %.preheader.i.i
  store i64 1, ptr @N_UserShape, align 8, !tbaa !111
  %39 = tail call dereferenceable_or_null(8) ptr @realloc(ptr noundef nonnull %18, i64 noundef range(i64 0, -7) 8) #32
  %40 = icmp eq ptr %39, null
  br i1 %40, label %41, label %.thread18

41:                                               ; preds = %.thread17, %36
  %42 = phi i64 [ 8, %.thread17 ], [ %33, %36 ]
  %43 = load ptr, ptr @stderr, align 8, !tbaa !10
  %44 = tail call i32 (ptr, ptr, ...) @fprintf(ptr noundef %43, ptr noundef nonnull @.str.6, i64 noundef range(i64 0, -7) %42) #28
  tail call fastcc void @graphviz_exit() #29
  unreachable

45:                                               ; preds = %36
  %46 = icmp ugt i64 %33, %32
  br i1 %46, label %.thread18, label %gv_recalloc.exit.i

.thread18:                                        ; preds = %.thread17, %45
  %47 = phi i64 [ %32, %45 ], [ 0, %.thread17 ]
  %48 = phi ptr [ %37, %45 ], [ %39, %.thread17 ]
  %49 = getelementptr inbounds nuw i8, ptr %48, i64 %47
  store i64 0, ptr %49, align 1
  br label %gv_recalloc.exit.i

gv_recalloc.exit.i:                               ; preds = %.thread18, %45, %35
  %.0.i.i.i = phi ptr [ null, %35 ], [ %48, %.thread18 ], [ %37, %45 ]
  store ptr %.0.i.i.i, ptr @UserShape, align 8, !tbaa !109
  %50 = tail call noalias dereferenceable_or_null(32) ptr @calloc(i64 noundef 1, i64 noundef range(i64 1, 89) 32) #27
  %51 = icmp eq ptr %50, null
  br i1 %51, label %52, label %gv_alloc.exit.i

52:                                               ; preds = %gv_recalloc.exit.i
  %53 = load ptr, ptr @stderr, align 8, !tbaa !10
  %54 = tail call i32 (ptr, ptr, ...) @fprintf(ptr noundef %53, ptr noundef nonnull @.str.6, i64 noundef 32) #28
  tail call fastcc void @graphviz_exit() #29
  unreachable

gv_alloc.exit.i:                                  ; preds = %gv_recalloc.exit.i
  %55 = getelementptr inbounds nuw ptr, ptr %.0.i.i.i, i64 %.pre.i
  store ptr %50, ptr %55, align 8, !tbaa !113
  tail call void @llvm.memcpy.p0.p0.i64(ptr noundef nonnull align 8 dereferenceable(32) %50, ptr noundef nonnull align 16 dereferenceable(32) @Shapes, i64 32, i1 false), !tbaa.struct !115
  %56 = tail call noalias ptr @strdup(ptr noundef nonnull readonly %.0) #26
  store ptr %56, ptr %50, align 8, !tbaa !79
  %57 = load ptr, ptr @Lib, align 8, !tbaa !119
  %58 = icmp eq ptr %57, null
  br i1 %58, label %59, label %find_user_shape.exit.sink.split.i

59:                                               ; preds = %gv_alloc.exit.i
  %60 = tail call i32 @strcmp(ptr noundef nonnull readonly dereferenceable(1) %.0, ptr noundef nonnull dereferenceable(7) @.str.4) #31
  %61 = icmp eq i32 %60, 0
  br i1 %61, label %find_user_shape.exit.sink.split.i, label %62

62:                                               ; preds = %59
  %63 = load ptr, ptr @Shapes, align 16, !tbaa !79
  tail call void (ptr, ...) @agwarningf(ptr noundef nonnull @.str.164, ptr noundef %63, ptr noundef %56) #26
  br label %find_user_shape.exit.sink.split.i

find_user_shape.exit.sink.split.i:                ; preds = %62, %59, %gv_alloc.exit.i
  %.sink.i = phi i8 [ 0, %62 ], [ 1, %59 ], [ 1, %gv_alloc.exit.i ]
  %64 = getelementptr inbounds nuw i8, ptr %50, i64 24
  store i8 %.sink.i, ptr %64, align 8, !tbaa !76
  br label %user_shape.exit

user_shape.exit:                                  ; preds = %.lr.ph, %.lr.ph.i.i, %find_user_shape.exit.sink.split.i
  %.1 = phi ptr [ %50, %find_user_shape.exit.sink.split.i ], [ %22, %.lr.ph.i.i ], [ %.01323, %.lr.ph ]
  ret ptr %.1
}